; ModuleID = 'source-C-CXX/43/692.cpp'
source_filename = "source-C-CXX/43/692.cpp"
target datalayout = "e-m:e-p270:32:32-p271:32:32-p272:64:64-i64:64-f80:128-n8:16:32:64-S128"
target triple = "x86_64-pc-linux-gnu"

%"class.std::ios_base::Init" = type { i8 }
%"class.std::basic_istream" = type { i32 (...)**, i64, %"class.std::basic_ios" }
%"class.std::basic_ios" = type { %"class.std::ios_base", %"class.std::basic_ostream"*, i8, i8, %"class.std::basic_streambuf"*, %"class.std::ctype"*, %"class.std::num_put"*, %"class.std::num_get"* }
%"class.std::ios_base" = type { i32 (...)**, i64, i64, i32, i32, i32, %"struct.std::ios_base::_Callback_list"*, %"struct.std::ios_base::_Words", [8 x %"struct.std::ios_base::_Words"], i32, %"struct.std::ios_base::_Words"*, %"class.std::locale" }
%"struct.std::ios_base::_Callback_list" = type { %"struct.std::ios_base::_Callback_list"*, void (i32, %"class.std::ios_base"*, i32)*, i32, i32 }
%"struct.std::ios_base::_Words" = type { i8*, i64 }
%"class.std::locale" = type { %"class.std::locale::_Impl"* }
%"class.std::locale::_Impl" = type { i32, %"class.std::locale::facet"**, i64, %"class.std::locale::facet"**, i8** }
%"class.std::locale::facet" = type <{ i32 (...)**, i32, [4 x i8] }>
%"class.std::basic_ostream" = type { i32 (...)**, %"class.std::basic_ios" }
%"class.std::basic_streambuf" = type { i32 (...)**, i8*, i8*, i8*, i8*, i8*, i8*, %"class.std::locale" }
%"class.std::ctype" = type <{ %"class.std::locale::facet.base", [4 x i8], %struct.__locale_struct*, i8, [7 x i8], i32*, i32*, i16*, i8, [256 x i8], [256 x i8], i8, [6 x i8] }>
%"class.std::locale::facet.base" = type <{ i32 (...)**, i32 }>
%struct.__locale_struct = type { [13 x %struct.__locale_data*], i16*, i32*, i32*, [13 x i8*] }
%struct.__locale_data = type opaque
%"class.std::num_put" = type { %"class.std::locale::facet.base", [4 x i8] }
%"class.std::num_get" = type { %"class.std::locale::facet.base", [4 x i8] }

@_ZStL8__ioinit = internal global %"class.std::ios_base::Init" zeroinitializer, align 1
@__dso_handle = external hidden global i8
@_ZSt3cin = external global %"class.std::basic_istream", align 8
@_ZSt4cout = external global %"class.std::basic_ostream", align 8
@llvm.global_ctors = appending global [1 x { i32, void ()*, i8* }] [{ i32, void ()*, i8* } { i32 65535, void ()* @_GLOBAL__sub_I_692.cpp, i8* null }]

declare void @_ZNSt8ios_base4InitC1Ev(%"class.std::ios_base::Init"* nonnull align 1 dereferenceable(1)) unnamed_addr #0

; Function Attrs: nounwind
declare void @_ZNSt8ios_base4InitD1Ev(%"class.std::ios_base::Init"* nonnull align 1 dereferenceable(1)) unnamed_addr #1

; Function Attrs: nofree nounwind
declare i32 @__cxa_atexit(void (i8*)*, i8*, i8*) local_unnamed_addr #2

; Function Attrs: mustprogress nofree norecurse nosync nounwind readnone sspstrong uwtable willreturn
define dso_local i32 @_Z7reversei(i32 %0) local_unnamed_addr #3 {
  %2 = icmp eq i32 %0, 0
  br i1 %2, label %19, label %3

3:                                                ; preds = %1
  %4 = icmp slt i32 %0, 0
  %5 = sub nsw i32 0, %0
  %6 = select i1 %4, i32 %5, i32 %0
  br label %7

7:                                                ; preds = %3, %7
  %8 = phi i32 [ %12, %7 ], [ 0, %3 ]
  %9 = phi i32 [ %13, %7 ], [ %6, %3 ]
  %10 = mul nsw i32 %8, 10
  %11 = srem i32 %9, 10
  %12 = add nsw i32 %10, %11
  %13 = sdiv i32 %9, 10
  %14 = add i32 %9, 9
  %15 = icmp ult i32 %14, 19
  br i1 %15, label %16, label %7, !llvm.loop !5

16:                                               ; preds = %7
  %17 = sub i32 0, %12
  %18 = select i1 %4, i32 %17, i32 %12
  br label %19

19:                                               ; preds = %1, %16
  %20 = phi i32 [ %18, %16 ], [ 0, %1 ]
  ret i32 %20
}

; Function Attrs: argmemonly mustprogress nofree nosync nounwind willreturn
declare void @llvm.lifetime.start.p0i8(i64 immarg, i8* nocapture) #4

; Function Attrs: argmemonly mustprogress nofree nosync nounwind willreturn
declare void @llvm.lifetime.end.p0i8(i64 immarg, i8* nocapture) #4

; Function Attrs: mustprogress norecurse sspstrong uwtable
define dso_local i32 @main() local_unnamed_addr #5 {
  %1 = alloca i32, align 4
  %2 = bitcast i32* %1 to i8*
  br label %4

3:                                                ; preds = %53
  ret i32 0

4:                                                ; preds = %0, %53
  %5 = phi i32 [ 0, %0 ], [ %57, %53 ]
  call void @llvm.lifetime.start.p0i8(i64 4, i8* nonnull %2) #8
  store i32 0, i32* %1, align 4, !tbaa !7
  %6 = call nonnull align 8 dereferenceable(16) %"class.std::basic_istream"* @_ZNSirsERi(%"class.std::basic_istream"* nonnull align 8 dereferenceable(16) @_ZSt3cin, i32* nonnull align 4 dereferenceable(4) %1)
  %7 = load i32, i32* %1, align 4, !tbaa !7
  %8 = icmp eq i32 %7, 0
  br i1 %8, label %25, label %9

9:                                                ; preds = %4
  %10 = icmp slt i32 %7, 0
  %11 = sub nsw i32 0, %7
  %12 = select i1 %10, i32 %11, i32 %7
  br label %13

13:                                               ; preds = %13, %9
  %14 = phi i32 [ %18, %13 ], [ 0, %9 ]
  %15 = phi i32 [ %19, %13 ], [ %12, %9 ]
  %16 = mul nsw i32 %14, 10
  %17 = srem i32 %15, 10
  %18 = add nsw i32 %17, %16
  %19 = sdiv i32 %15, 10
  %20 = add i32 %15, 9
  %21 = icmp ult i32 %20, 19
  br i1 %21, label %22, label %13, !llvm.loop !5

22:                                               ; preds = %13
  %23 = sub i32 0, %18
  %24 = select i1 %10, i32 %23, i32 %18
  br label %25

25:                                               ; preds = %4, %22
  %26 = phi i32 [ %24, %22 ], [ 0, %4 ]
  %27 = call nonnull align 8 dereferenceable(8) %"class.std::basic_ostream"* @_ZNSolsEi(%"class.std::basic_ostream"* nonnull align 8 dereferenceable(8) @_ZSt4cout, i32 %26)
  %28 = bitcast %"class.std::basic_ostream"* %27 to i8**
  %29 = load i8*, i8** %28, align 8, !tbaa !11
  %30 = getelementptr i8, i8* %29, i64 -24
  %31 = bitcast i8* %30 to i64*
  %32 = load i64, i64* %31, align 8
  %33 = bitcast %"class.std::basic_ostream"* %27 to i8*
  %34 = add nsw i64 %32, 240
  %35 = getelementptr inbounds i8, i8* %33, i64 %34
  %36 = bitcast i8* %35 to %"class.std::ctype"**
  %37 = load %"class.std::ctype"*, %"class.std::ctype"** %36, align 8, !tbaa !13
  %38 = icmp eq %"class.std::ctype"* %37, null
  br i1 %38, label %39, label %40

39:                                               ; preds = %25
  call void @_ZSt16__throw_bad_castv() #9
  unreachable

40:                                               ; preds = %25
  %41 = getelementptr inbounds %"class.std::ctype", %"class.std::ctype"* %37, i64 0, i32 8
  %42 = load i8, i8* %41, align 8, !tbaa !17
  %43 = icmp eq i8 %42, 0
  br i1 %43, label %47, label %44

44:                                               ; preds = %40
  %45 = getelementptr inbounds %"class.std::ctype", %"class.std::ctype"* %37, i64 0, i32 9, i64 10
  %46 = load i8, i8* %45, align 1, !tbaa !19
  br label %53

47:                                               ; preds = %40
  call void @_ZNKSt5ctypeIcE13_M_widen_initEv(%"class.std::ctype"* nonnull align 8 dereferenceable(570) %37)
  %48 = bitcast %"class.std::ctype"* %37 to i8 (%"class.std::ctype"*, i8)***
  %49 = load i8 (%"class.std::ctype"*, i8)**, i8 (%"class.std::ctype"*, i8)*** %48, align 8, !tbaa !11
  %50 = getelementptr inbounds i8 (%"class.std::ctype"*, i8)*, i8 (%"class.std::ctype"*, i8)** %49, i64 6
  %51 = load i8 (%"class.std::ctype"*, i8)*, i8 (%"class.std::ctype"*, i8)** %50, align 8
  %52 = call signext i8 %51(%"class.std::ctype"* nonnull align 8 dereferenceable(570) %37, i8 signext 10)
  br label %53

53:                                               ; preds = %44, %47
  %54 = phi i8 [ %46, %44 ], [ %52, %47 ]
  %55 = call nonnull align 8 dereferenceable(8) %"class.std::basic_ostream"* @_ZNSo3putEc(%"class.std::basic_ostream"* nonnull align 8 dereferenceable(8) %27, i8 signext %54)
  %56 = call nonnull align 8 dereferenceable(8) %"class.std::basic_ostream"* @_ZNSo5flushEv(%"class.std::basic_ostream"* nonnull align 8 dereferenceable(8) %55)
  call void @llvm.lifetime.end.p0i8(i64 4, i8* nonnull %2) #8
  %57 = add nuw nsw i32 %5, 1
  %58 = icmp eq i32 %57, 6
  br i1 %58, label %3, label %4, !llvm.loop !20
}

declare nonnull align 8 dereferenceable(16) %"class.std::basic_istream"* @_ZNSirsERi(%"class.std::basic_istream"* nonnull align 8 dereferenceable(16), i32* nonnull align 4 dereferenceable(4)) local_unnamed_addr #0

declare nonnull align 8 dereferenceable(8) %"class.std::basic_ostream"* @_ZNSolsEi(%"class.std::basic_ostream"* nonnull align 8 dereferenceable(8), i32) local_unnamed_addr #0

declare nonnull align 8 dereferenceable(8) %"class.std::basic_ostream"* @_ZNSo3putEc(%"class.std::basic_ostream"* nonnull align 8 dereferenceable(8), i8 signext) local_unnamed_addr #0

declare nonnull align 8 dereferenceable(8) %"class.std::basic_ostream"* @_ZNSo5flushEv(%"class.std::basic_ostream"* nonnull align 8 dereferenceable(8)) local_unnamed_addr #0

; Function Attrs: noreturn
declare void @_ZSt16__throw_bad_castv() local_unnamed_addr #6

declare void @_ZNKSt5ctypeIcE13_M_widen_initEv(%"class.std::ctype"* nonnull align 8 dereferenceable(570)) local_unnamed_addr #0

; Function Attrs: sspstrong uwtable
define internal void @_GLOBAL__sub_I_692.cpp() #7 section ".text.startup" {
  tail call void @_ZNSt8ios_base4InitC1Ev(%"class.std::ios_base::Init"* nonnull align 1 dereferenceable(1) @_ZStL8__ioinit)
  %1 = tail call i32 @__cxa_atexit(void (i8*)* bitcast (void (%"class.std::ios_base::Init"*)* @_ZNSt8ios_base4InitD1Ev to void (i8*)*), i8* getelementptr inbounds (%"class.std::ios_base::Init", %"class.std::ios_base::Init"* @_ZStL8__ioinit, i64 0, i32 0), i8* nonnull @__dso_handle) #8
  ret void
}


!llvm.module.flags = !{!0, !1, !2, !3}
!llvm.ident = !{!4}

!0 = !{i32 1, !"wchar_size", i32 4}
!1 = !{i32 7, !"PIC Level", i32 2}
!2 = !{i32 7, !"PIE Level", i32 2}
!3 = !{i32 7, !"uwtable", i32 1}
!4 = !{!"clang version 13.0.0"}
!5 = distinct !{!5, !6}
!6 = !{!"llvm.loop.mustprogress"}
!7 = !{!8, !8, i64 0}
!8 = !{!"int", !9, i64 0}
!9 = !{!"omnipotent char", !10, i64 0}
!10 = !{!"Simple C++ TBAA"}
!11 = !{!12, !12, i64 0}
!12 = !{!"vtable pointer", !10, i64 0}
!13 = !{!14, !15, i64 240}
!14 = !{!"_ZTSSt9basic_iosIcSt11char_traitsIcEE", !15, i64 216, !9, i64 224, !16, i64 225, !15, i64 232, !15, i64 240, !15, i64 248, !15, i64 256}
!15 = !{!"any pointer", !9, i64 0}
!16 = !{!"bool", !9, i64 0}
!17 = !{!18, !9, i64 56}
!18 = !{!"_ZTSSt5ctypeIcE", !15, i64 16, !16, i64 24, !15, i64 32, !15, i64 40, !15, i64 48, !9, i64 56, !9, i64 57, !9, i64 313, !9, i64 569}
!19 = !{!9, !9, i64 0}
!20 = distinct !{!20, !6}
